Certificate:
    Data:
        Version: 3 (0x2)
        Serial Number:
            d4:54:a1:49:d4:0e:ea:32:95:a3:b3:95:7d:7d:66:a9
        Signature Algorithm: sha256WithRSAEncryption
        Issuer: CN=server
        Validity
            Not Before: Feb 15 06:01:05 2023 GMT
            Not After : May 20 06:01:05 2025 GMT
        Subject: CN=client
        Subject Public Key Info:
            Public Key Algorithm: rsaEncryption
                Public-Key: (2048 bit)
                Modulus:
                    00:ec:f6:fa:1f:86:f2:e9:28:ff:11:d2:d4:b3:f7:
                    60:fe:08:a7:42:79:12:64:d2:48:6c:21:03:2b:61:
                    78:4b:e3:07:95:06:dc:2e:f3:34:07:60:29:32:e9:
                    4e:ab:4a:25:4c:ee:7e:ae:44:d6:45:4c:b0:db:80:
                    5c:14:43:f5:5a:d0:5d:8d:11:9b:cc:b6:44:52:5d:
                    38:38:b8:05:b6:b0:ff:b9:9e:11:ac:88:51:d3:a4:
                    2b:57:6b:67:dc:0c:71:77:26:5b:c6:f0:c7:aa:1b:
                    82:8b:c3:f3:6f:41:f3:ef:7e:ae:99:81:16:ab:28:
                    f5:cb:8d:95:fd:4c:b7:c3:26:fb:50:3d:5b:b9:6a:
                    10:ac:39:fc:0b:b3:4b:c9:af:94:1d:dd:4c:d4:e8:
                    ce:38:2c:79:f4:80:cd:12:a9:7a:5d:09:94:2f:14:
                    c7:d8:42:b7:37:00:c7:59:d4:ab:e8:54:43:30:55:
                    e0:20:c9:6a:a7:e9:1b:93:60:74:eb:6e:64:24:18:
                    2d:e1:7a:c0:f3:28:ff:07:44:cb:03:ca:c8:ac:3c:
                    f1:9b:5b:9c:bb:4a:49:80:0f:2d:d1:1e:db:52:29:
                    e2:ea:92:81:c9:b9:93:ac:3e:2b:f7:a4:1e:70:4e:
                    68:1b:d1:98:7f:51:6c:23:35:a3:d6:25:e6:1b:81:
                    f9:3d
                Exponent: 65537 (0x10001)
        X509v3 extensions:
            X509v3 Basic Constraints: 
                CA:FALSE
            X509v3 Subject Key Identifier: 
                80:CE:37:B3:18:7A:9D:22:3C:FC:A2:25:89:2C:A5:A4:1C:8D:CA:62
            X509v3 Authority Key Identifier: 
                keyid:50:A0:32:79:FD:E4:7C:40:AD:27:E9:46:B5:2D:0B:30:B5:DE:3D:03
                DirName:/CN=server
                serial:30:89:89:15:D7:7C:E5:78:E1:17:26:87:75:D3:CE:B8:26:0E:47:FD
            X509v3 Extended Key Usage: 
                TLS Web Client Authentication
            X509v3 Key Usage: 
                Digital Signature
    Signature Algorithm: sha256WithRSAEncryption
    Signature Value:
        4c:35:e8:a4:3b:89:1c:7c:c6:68:1f:3a:df:04:48:a9:5b:37:
        19:8e:d2:13:d7:6f:b3:97:9f:4d:e0:57:81:f0:cd:fa:cd:b9:
        2e:0c:b6:1e:4b:b1:d0:2d:df:95:fa:64:6a:31:4d:42:4a:eb:
        27:f3:ff:ec:d9:16:ed:5d:d5:cf:db:a2:ef:a8:20:dd:ff:e7:
        cd:ca:c9:9e:15:9c:d6:92:1c:84:f7:aa:d9:31:3b:d6:75:61:
        c7:61:4d:fe:79:e6:b8:81:11:c7:e4:3a:a6:61:c4:b5:2e:c9:
        c4:80:aa:a9:ab:8f:e8:0e:37:00:cd:86:53:b1:57:23:0c:55:
        ec:10:48:11:1e:d4:66:a1:40:eb:96:ca:f1:72:25:5f:9d:99:
        57:41:b0:9c:cd:bd:76:33:26:6e:f5:11:07:48:d9:12:55:af:
        6d:d7:9a:8b:2f:22:e6:92:4c:7a:7f:7c:c1:d7:4f:53:1e:bb:
        7d:f6:f3:5a:cb:44:38:69:0f:24:b9:8c:53:46:71:93:1d:0c:
        19:03:b5:5a:74:ad:f2:6d:38:4e:99:b0:08:ea:d7:d3:aa:68:
        40:12:fd:41:6d:56:1a:e9:11:c6:28:42:e5:14:2b:3c:5b:72:
        a2:b9:1d:30:c4:92:28:49:0b:06:10:b5:ba:5f:4f:14:66:5a:
        d5:6a:cb:3b
-----BEGIN CERTIFICATE-----
MIIDSzCCAjOgAwIBAgIRANRUoUnUDuoylaOzlX19ZqkwDQYJKoZIhvcNAQELBQAw
ETEPMA0GA1UEAwwGc2VydmVyMB4XDTIzMDIxNTA2MDEwNVoXDTI1MDUyMDA2MDEw
NVowETEPMA0GA1UEAwwGY2xpZW50MIIBIjANBgkqhkiG9w0BAQEFAAOCAQ8AMIIB
CgKCAQEA7Pb6H4by6Sj/EdLUs/dg/ginQnkSZNJIbCEDK2F4S+MHlQbcLvM0B2Ap
MulOq0olTO5+rkTWRUyw24BcFEP1WtBdjRGbzLZEUl04OLgFtrD/uZ4RrIhR06Qr
V2tn3AxxdyZbxvDHqhuCi8Pzb0Hz736umYEWqyj1y42V/Uy3wyb7UD1buWoQrDn8
C7NLya+UHd1M1OjOOCx59IDNEql6XQmULxTH2EK3NwDHWdSr6FRDMFXgIMlqp+kb
k2B0625kJBgt4XrA8yj/B0TLA8rIrDzxm1ucu0pJgA8t0R7bUini6pKBybmTrD4r
96QecE5oG9GYf1FsIzWj1iXmG4H5PQIDAQABo4GdMIGaMAkGA1UdEwQCMAAwHQYD
VR0OBBYEFIDON7MYep0iPPyiJYkspaQcjcpiMEwGA1UdIwRFMEOAFFCgMnn95HxA
rSfpRrUtCzC13j0DoRWkEzARMQ8wDQYDVQQDDAZzZXJ2ZXKCFDCJiRXXfOV44Rcm
h3XTzrgmDkf9MBMGA1UdJQQMMAoGCCsGAQUFBwMCMAsGA1UdDwQEAwIHgDANBgkq
hkiG9w0BAQsFAAOCAQEATDXopDuJHHzGaB863wRIqVs3GY7SE9dvs5efTeBXgfDN
+s25Lgy2Hkux0C3flfpkajFNQkrrJ/P/7NkW7V3Vz9ui76gg3f/nzcrJnhWc1pIc
hPeq2TE71nVhx2FN/nnmuIERx+Q6pmHEtS7JxICqqauP6A43AM2GU7FXIwxV7BBI
ER7UZqFA65bK8XIlX52ZV0GwnM29djMmbvURB0jZElWvbdeaiy8i5pJMen98wddP
Ux67ffbzWstEOGkPJLmMU0Zxkx0MGQO1WnSt8m04TpmwCOrX06poQBL9QW1WGukR
xihC5RQrPFtyorkdMMSSKEkLBhC1ul9PFGZa1WrLOw==
-----END CERTIFICATE-----
